target datalayout = "e-m:e-p270:32:32-p271:32:32-p272:64:64-i64:64-i128:128-f80:128-n8:16:32:64-S128"
target triple = "x86_64-pc-linux-gnu"

%struct.lua_State = type { %struct.GCRef, i8, i8, i8, i8, %struct.MRef, %struct.GCRef, ptr, ptr, %struct.MRef, %struct.MRef, %struct.GCRef, %struct.GCRef, ptr, i32 }
%struct.MRef = type { i64 }
%struct.GCRef = type { i64 }
%union.TValue = type { i64 }
%struct.SBufExt = type { ptr, ptr, ptr, %struct.MRef, %union.anon.2, ptr, %struct.GCRef, %struct.GCRef, i32 }
%union.anon.2 = type { %struct.GCRef }
%struct.GCudata = type { %struct.GCRef, i8, i8, i8, i8, %struct.GCRef, i32, %struct.GCRef, i32 }

@.str.2 = private unnamed_addr constant [7 x i8] c"buffer\00", align 1

; Function Attrs: nounwind uwtable
define internal ptr @buffer_tobuf(ptr noundef %0) #0 {
  %2 = alloca ptr, align 8
  store ptr %0, ptr %2, align 8, !tbaa !4
  %3 = load ptr, ptr %2, align 8, !tbaa !4
  %4 = getelementptr inbounds nuw %struct.lua_State, ptr %3, i32 0, i32 7
  %5 = load ptr, ptr %4, align 8, !tbaa !11
  %6 = load ptr, ptr %2, align 8, !tbaa !4
  %7 = getelementptr inbounds nuw %struct.lua_State, ptr %6, i32 0, i32 8
  %8 = load ptr, ptr %7, align 8, !tbaa !18
  %9 = icmp ult ptr %5, %8
  br i1 %9, label %10, label %30

10:                                               ; preds = %1
  %11 = load ptr, ptr %2, align 8, !tbaa !4
  %12 = getelementptr inbounds nuw %struct.lua_State, ptr %11, i32 0, i32 7
  %13 = load ptr, ptr %12, align 8, !tbaa !11
  %14 = load i64, ptr %13, align 8, !tbaa !26
  %15 = ashr i64 %14, 47
  %16 = trunc i64 %15 to i32
  %17 = icmp eq i32 %16, -13
  br i1 %17, label %18, label %30

18:                                               ; preds = %10
  %19 = load ptr, ptr %2, align 8, !tbaa !4
  %20 = getelementptr inbounds nuw %struct.lua_State, ptr %19, i32 0, i32 7
  %21 = load ptr, ptr %20, align 8, !tbaa !11
  %22 = getelementptr inbounds nuw %struct.GCRef, ptr %21, i32 0, i32 0
  %23 = load i64, ptr %22, align 8, !tbaa !26
  %24 = and i64 %23, 140737488355327
  %25 = inttoptr i64 %24 to ptr
  %26 = getelementptr inbounds nuw %struct.GCudata, ptr %25, i32 0, i32 3
  %27 = load i8, ptr %26, align 2, !tbaa !26
  %28 = zext i8 %27 to i32
  %29 = icmp eq i32 %28, 3
  br i1 %29, label %32, label %30

30:                                               ; preds = %18, %10, %1
  %31 = load ptr, ptr %2, align 8, !tbaa !4
  call void @lj_err_argtype(ptr noundef %31, i32 noundef 1, ptr noundef @.str.2) #9
  unreachable

32:                                               ; preds = %18
  %33 = load ptr, ptr %2, align 8, !tbaa !4
  %34 = getelementptr inbounds nuw %struct.lua_State, ptr %33, i32 0, i32 7
  %35 = load ptr, ptr %34, align 8, !tbaa !11
  %36 = getelementptr inbounds nuw %struct.GCRef, ptr %35, i32 0, i32 0
  %37 = load i64, ptr %36, align 8, !tbaa !26
  %38 = and i64 %37, 140737488355327
  %39 = inttoptr i64 %38 to ptr
  %40 = getelementptr inbounds %struct.GCudata, ptr %39, i64 1
  ret ptr %40
}

; Function Attrs: nounwind uwtable
define internal i32 @lj_cf_buffer_method_skip(ptr noundef %0) #0 {
  %2 = alloca ptr, align 8
  %3 = alloca ptr, align 8
  %4 = alloca i32, align 4
  %5 = alloca i32, align 4
  store ptr %0, ptr %2, align 8, !tbaa !4
  call void @llvm.lifetime.start.p0(i64 8, ptr %3) #8
  %6 = load ptr, ptr %2, align 8, !tbaa !4
  %7 = call ptr @buffer_tobuf(ptr noundef %6)
  store ptr %7, ptr %3, align 8, !tbaa !9
  call void @llvm.lifetime.start.p0(i64 4, ptr %4) #8
  %8 = load ptr, ptr %2, align 8, !tbaa !4
  %9 = call i32 @lj_lib_checkintrange(ptr noundef %8, i32 noundef 2, i32 noundef 0, i32 noundef 2147483392)
  store i32 %9, ptr %4, align 4, !tbaa !19
  call void @llvm.lifetime.start.p0(i64 4, ptr %5) #8
  %10 = load ptr, ptr %3, align 8, !tbaa !9
  %11 = getelementptr inbounds nuw %struct.SBufExt, ptr %10, i32 0, i32 0
  %12 = load ptr, ptr %11, align 8, !tbaa !20
  %13 = load ptr, ptr %3, align 8, !tbaa !9
  %14 = getelementptr inbounds nuw %struct.SBufExt, ptr %13, i32 0, i32 5
  %15 = load ptr, ptr %14, align 8, !tbaa !23
  %16 = ptrtoint ptr %12 to i64
  %17 = ptrtoint ptr %15 to i64
  %18 = sub i64 %16, %17
  %19 = trunc i64 %18 to i32
  store i32 %19, ptr %5, align 4, !tbaa !19
  %20 = load i32, ptr %4, align 4, !tbaa !19
  %21 = load i32, ptr %5, align 4, !tbaa !19
  %22 = icmp ult i32 %20, %21
  br i1 %22, label %23, label %30

23:                                               ; preds = %1
  %24 = load i32, ptr %4, align 4, !tbaa !19
  %25 = load ptr, ptr %3, align 8, !tbaa !9
  %26 = getelementptr inbounds nuw %struct.SBufExt, ptr %25, i32 0, i32 5
  %27 = load ptr, ptr %26, align 8, !tbaa !23
  %28 = zext i32 %24 to i64
  %29 = getelementptr inbounds nuw i8, ptr %27, i64 %28
  store ptr %29, ptr %26, align 8, !tbaa !23
  br label %52

30:                                               ; preds = %1
  %31 = load ptr, ptr %3, align 8, !tbaa !9
  %32 = getelementptr inbounds nuw %struct.SBufExt, ptr %31, i32 0, i32 3
  %33 = getelementptr inbounds nuw %struct.MRef, ptr %32, i32 0, i32 0
  %34 = load i64, ptr %33, align 8, !tbaa !24
  %35 = and i64 %34, 2
  %36 = icmp ne i64 %35, 0
  br i1 %36, label %37, label %43

37:                                               ; preds = %30
  %38 = load ptr, ptr %3, align 8, !tbaa !9
  %39 = getelementptr inbounds nuw %struct.SBufExt, ptr %38, i32 0, i32 0
  %40 = load ptr, ptr %39, align 8, !tbaa !20
  %41 = load ptr, ptr %3, align 8, !tbaa !9
  %42 = getelementptr inbounds nuw %struct.SBufExt, ptr %41, i32 0, i32 5
  store ptr %40, ptr %42, align 8, !tbaa !23
  br label %51

43:                                               ; preds = %30
  %44 = load ptr, ptr %3, align 8, !tbaa !9
  %45 = getelementptr inbounds nuw %struct.SBufExt, ptr %44, i32 0, i32 2
  %46 = load ptr, ptr %45, align 8, !tbaa !25
  %47 = load ptr, ptr %3, align 8, !tbaa !9
  %48 = getelementptr inbounds nuw %struct.SBufExt, ptr %47, i32 0, i32 0
  store ptr %46, ptr %48, align 8, !tbaa !20
  %49 = load ptr, ptr %3, align 8, !tbaa !9
  %50 = getelementptr inbounds nuw %struct.SBufExt, ptr %49, i32 0, i32 5
  store ptr %46, ptr %50, align 8, !tbaa !23
  br label %51

51:                                               ; preds = %43, %37
  br label %52

52:                                               ; preds = %51, %23
  %53 = load ptr, ptr %2, align 8, !tbaa !4
  %54 = getelementptr inbounds nuw %struct.lua_State, ptr %53, i32 0, i32 7
  %55 = load ptr, ptr %54, align 8, !tbaa !11
  %56 = getelementptr inbounds %union.TValue, ptr %55, i64 1
  %57 = load ptr, ptr %2, align 8, !tbaa !4
  %58 = getelementptr inbounds nuw %struct.lua_State, ptr %57, i32 0, i32 8
  store ptr %56, ptr %58, align 8, !tbaa !18
  call void @llvm.lifetime.end.p0(i64 4, ptr %5) #8
  call void @llvm.lifetime.end.p0(i64 4, ptr %4) #8
  call void @llvm.lifetime.end.p0(i64 8, ptr %3) #8
  ret i32 1
}