; Function Attrs: nounwind uwtable
define internal noundef i32 @lj_cf_buffer_method_skip(ptr noundef %0) #0 {
  %2 = getelementptr inbounds nuw i8, ptr %0, i64 32
  %3 = load ptr, ptr %2, align 8, !tbaa !4
  %4 = getelementptr inbounds nuw i8, ptr %0, i64 40
  %5 = load ptr, ptr %4, align 8, !tbaa !14
  %6 = icmp ult ptr %3, %5
  br i1 %6, label %7, label %16

7:                                                ; preds = %1
  %8 = load i64, ptr %3, align 8, !tbaa !15
  %.mask.i = and i64 %8, -140737488355328
  %9 = icmp eq i64 %.mask.i, -1829587348619264
  br i1 %9, label %10, label %16

10:                                               ; preds = %7
  %11 = and i64 %8, 140737488355327
  %12 = inttoptr i64 %11 to ptr
  %13 = getelementptr inbounds nuw i8, ptr %12, i64 10
  %14 = load i8, ptr %13, align 2, !tbaa !15
  %15 = icmp eq i8 %14, 3
  br i1 %15, label %buffer_tobuf.exit, label %16

16:                                               ; preds = %10, %7, %1
  tail call void @lj_err_argtype(ptr noundef nonnull %0, i32 noundef 1, ptr noundef nonnull @.str.2) #7
  unreachable

buffer_tobuf.exit:                                ; preds = %10
  %17 = getelementptr inbounds nuw i8, ptr %12, i64 48
  %18 = tail call i32 @lj_lib_checkintrange(ptr noundef nonnull %0, i32 noundef 2, i32 noundef 0, i32 noundef 2147483392) #6
  %19 = load ptr, ptr %17, align 8, !tbaa !34
  %20 = getelementptr inbounds nuw i8, ptr %12, i64 88
  %21 = load ptr, ptr %20, align 8, !tbaa !35
  %22 = ptrtoint ptr %19 to i64
  %23 = ptrtoint ptr %21 to i64
  %24 = sub i64 %22, %23
  %25 = trunc i64 %24 to i32
  %26 = icmp ult i32 %18, %25
  br i1 %26, label %27, label %30

27:                                               ; preds = %buffer_tobuf.exit
  %28 = zext i32 %18 to i64
  %29 = getelementptr inbounds nuw i8, ptr %21, i64 %28
  br label %37

30:                                               ; preds = %buffer_tobuf.exit
  %31 = getelementptr inbounds nuw i8, ptr %12, i64 72
  %32 = load i64, ptr %31, align 8, !tbaa !16
  %33 = and i64 %32, 2
  %.not = icmp eq i64 %33, 0
  br i1 %.not, label %34, label %37

34:                                               ; preds = %30
  %35 = getelementptr inbounds nuw i8, ptr %12, i64 64
  %36 = load ptr, ptr %35, align 8, !tbaa !20
  store ptr %36, ptr %17, align 8, !tbaa !34
  br label %37

37:                                               ; preds = %30, %34, %27
  %.sink = phi ptr [ %36, %34 ], [ %29, %27 ], [ %19, %30 ]
  store ptr %.sink, ptr %20, align 8, !tbaa !35
  %38 = load ptr, ptr %2, align 8, !tbaa !4
  %39 = getelementptr inbounds nuw i8, ptr %38, i64 8
  store ptr %39, ptr %4, align 8, !tbaa !14
  ret i32 1
}